target datalayout = "e-m:e-p270:32:32-p271:32:32-p272:64:64-i64:64-i128:128-f80:128-n8:16:32:64-S128"
target triple = "x86_64-pc-linux-gnu"

%"class.gmx::internal::SelectionData" = type <{ %"class.std::__cxx11::basic_string", %"class.std::__cxx11::basic_string", %struct.gmx_ana_pos_t, %"class.std::vector", %"class.std::vector", %"class.gmx::FlagsTemplate", ptr, i32, float, float, i8, i8, [2 x i8] }>
%"class.std::__cxx11::basic_string" = type { %"struct.std::__cxx11::basic_string<char>::_Alloc_hider", i64, %union.anon }
%"struct.std::__cxx11::basic_string<char>::_Alloc_hider" = type { ptr }
%union.anon = type { i64, [8 x i8] }
%struct.gmx_ana_pos_t = type <{ ptr, ptr, ptr, %struct.gmx_ana_indexmap_t, i32, [4 x i8] }>
%struct.gmx_ana_indexmap_t = type { i32, ptr, ptr, %struct.t_blocka, ptr, %struct.t_blocka, i8 }
%struct.t_blocka = type { i32, ptr, i32, ptr, i32, i32 }
%"class.std::vector" = type { %"struct.std::_Vector_base" }
%"struct.std::_Vector_base" = type { %"struct.std::_Vector_base<float, std::allocator<float>>::_Vector_impl" }
%"struct.std::_Vector_base<float, std::allocator<float>>::_Vector_impl" = type { %"struct.std::_Vector_base<float, std::allocator<float>>::_Vector_impl_data" }
%"struct.std::_Vector_base<float, std::allocator<float>>::_Vector_impl_data" = type { ptr, ptr, ptr }
%"class.gmx::FlagsTemplate" = type { i64 }

; Function Attrs: mustprogress nounwind uwtable
define linkonce_odr noundef nonnull align 8 dereferenceable(168) ptr @_ZN3gmx8internal13SelectionData11rootElementEv(ptr noundef nonnull align 8 dereferenceable(294) %0) #1 comdat align 2 {
  %2 = alloca ptr, align 8
  store ptr %0, ptr %2, align 8
  %3 = load ptr, ptr %2, align 8
  %4 = getelementptr inbounds %"class.gmx::internal::SelectionData", ptr %3, i32 0, i32 6
  %5 = load ptr, ptr %4, align 8
  ret ptr %5
}

; Function Attrs: mustprogress uwtable
define noundef zeroext i1 @_ZN3gmx8internal13SelectionData19initCoveredFractionE13e_coverfrac_t(ptr noundef nonnull align 8 dereferenceable(294) %0, i32 noundef %1) #0 align 2 {
  %3 = alloca ptr, align 8
  %4 = alloca i32, align 4
  store ptr %0, ptr %3, align 8
  store i32 %1, ptr %4, align 4
  %5 = load ptr, ptr %3, align 8
  %6 = load i32, ptr %4, align 4
  %7 = getelementptr inbounds %"class.gmx::internal::SelectionData", ptr %5, i32 0, i32 7
  store i32 %6, ptr %7, align 8
  %8 = load i32, ptr %4, align 4
  %9 = icmp eq i32 %8, 0
  br i1 %9, label %10, label %12

10:                                               ; preds = %2
  %11 = getelementptr inbounds %"class.gmx::internal::SelectionData", ptr %5, i32 0, i32 11
  store i8 0, ptr %11, align 1
  br label %21

12:                                               ; preds = %2
  %13 = call noundef nonnull align 8 dereferenceable(168) ptr @_ZN3gmx8internal13SelectionData11rootElementEv(ptr noundef nonnull align 8 dereferenceable(294) %5)
  %14 = call noundef zeroext i1 @_Z31_gmx_selelem_can_estimate_coverRKN3gmx20SelectionTreeElementE(ptr noundef nonnull align 8 dereferenceable(168) %13)
  br i1 %14, label %18, label %15

15:                                               ; preds = %12
  %16 = getelementptr inbounds %"class.gmx::internal::SelectionData", ptr %5, i32 0, i32 7
  store i32 0, ptr %16, align 8
  %17 = getelementptr inbounds %"class.gmx::internal::SelectionData", ptr %5, i32 0, i32 11
  store i8 0, ptr %17, align 1
  br label %20

18:                                               ; preds = %12
  %19 = getelementptr inbounds %"class.gmx::internal::SelectionData", ptr %5, i32 0, i32 11
  store i8 1, ptr %19, align 1
  br label %20

20:                                               ; preds = %18, %15
  br label %21

21:                                               ; preds = %20, %10
  %22 = getelementptr inbounds %"class.gmx::internal::SelectionData", ptr %5, i32 0, i32 11
  %23 = load i8, ptr %22, align 1
  %24 = trunc i8 %23 to i1
  %25 = select i1 %24, double 0.000000e+00, double 1.000000e+00
  %26 = fptrunc double %25 to float
  %27 = getelementptr inbounds %"class.gmx::internal::SelectionData", ptr %5, i32 0, i32 8
  store float %26, ptr %27, align 4
  %28 = getelementptr inbounds %"class.gmx::internal::SelectionData", ptr %5, i32 0, i32 8
  %29 = load float, ptr %28, align 4
  %30 = getelementptr inbounds %"class.gmx::internal::SelectionData", ptr %5, i32 0, i32 9
  store float %29, ptr %30, align 8
  %31 = load i32, ptr %4, align 4
  %32 = icmp eq i32 %31, 0
  br i1 %32, label %37, label %33

33:                                               ; preds = %21
  %34 = getelementptr inbounds %"class.gmx::internal::SelectionData", ptr %5, i32 0, i32 7
  %35 = load i32, ptr %34, align 8
  %36 = icmp ne i32 %35, 0
  br label %37

37:                                               ; preds = %33, %21
  %38 = phi i1 [ true, %21 ], [ %36, %33 ]
  ret i1 %38
}