; Function Attrs: mustprogress uwtable
define noundef zeroext i1 @_ZN3gmx8internal13SelectionData19initCoveredFractionE13e_coverfrac_t(ptr nocapture noundef nonnull align 8 dereferenceable(294) %0, i32 noundef %1) local_unnamed_addr #0 align 2 {
  %3 = getelementptr inbounds i8, ptr %0, i64 280
  store i32 %1, ptr %3, align 8
  %4 = icmp eq i32 %1, 0
  br i1 %4, label %5, label %7

5:                                                ; preds = %2
  %6 = getelementptr inbounds i8, ptr %0, i64 293
  store i8 0, ptr %6, align 1
  br label %16

7:                                                ; preds = %2
  %8 = getelementptr inbounds i8, ptr %0, i64 272
  %9 = load ptr, ptr %8, align 8
  %10 = tail call noundef zeroext i1 @_Z31_gmx_selelem_can_estimate_coverRKN3gmx20SelectionTreeElementE(ptr noundef nonnull align 8 dereferenceable(168) %9)
  br i1 %10, label %13, label %11

11:                                               ; preds = %7
  store i32 0, ptr %3, align 8
  %12 = getelementptr inbounds i8, ptr %0, i64 293
  store i8 0, ptr %12, align 1
  br label %16

13:                                               ; preds = %7
  %14 = getelementptr inbounds i8, ptr %0, i64 293
  store i8 1, ptr %14, align 1
  %.pre = load i32, ptr %3, align 8
  %15 = icmp ne i32 %.pre, 0
  br label %16

16:                                               ; preds = %11, %13, %5
  %17 = phi i1 [ false, %11 ], [ %15, %13 ], [ true, %5 ]
  %18 = phi float [ 1.000000e+00, %11 ], [ 0.000000e+00, %13 ], [ 1.000000e+00, %5 ]
  %19 = getelementptr inbounds i8, ptr %0, i64 284
  store float %18, ptr %19, align 4
  %20 = getelementptr inbounds i8, ptr %0, i64 288
  store float %18, ptr %20, align 8
  ret i1 %17
}